(i__main__
LogFile
p0
(dp1
S'_installed_files'
p2
(dp3
S'../../../../../../../../../grid/fermiapp/minerva/software_releases/v10r8p7/minerva/EXTERNAL/EXTERNAL_v10r8p7/NuConDB/x86_64-slc6-gcc44-opt/libNuConDBLib.so'
p4
S'../../../InstallArea/x86_64-slc6-gcc44-opt/lib/libNuConDBLib.so'
p5
sS'../../../Ana/CCProtonPi0/genConf/CCProtonPi0'
p6
(dp7
S'../../../../Ana/CCProtonPi0/genConf/CCProtonPi0/CCProtonPi0LibConf.py'
p8
S'../../../InstallArea/x86_64-slc6-gcc44-opt/python/CCProtonPi0/CCProtonPi0LibConf.py'
p9
sS'../../../../Ana/CCProtonPi0/genConf/CCProtonPi0/CCProtonPi0Lib_confDb.py'
p10
S'../../../InstallArea/x86_64-slc6-gcc44-opt/python/CCProtonPi0/CCProtonPi0Lib_confDb.py'
p11
sssb.